; Function Attrs: mustprogress uwtable
define noundef zeroext range(i32 65536, 1114112) i32 @_ZN7jsonnet8internal23decode_utf16_surrogatesERKNS0_13LocationRangeEmm(ptr noundef nonnull align 8 dereferenceable(64) %0, i64 noundef %1, i64 noundef %2) local_unnamed_addr #3 personality ptr @__gxx_personality_v0 {
  %4 = alloca %"class.std::__cxx11::basic_stringstream", align 8
  %5 = alloca %"class.std::__cxx11::basic_string.0", align 8
  %6 = and i64 %1, -1024
  %or.cond = icmp eq i64 %6, 55296
  %7 = and i64 %2, -1024
  %8 = icmp eq i64 %7, 56320
  %or.cond5 = and i1 %or.cond, %8
  br i1 %or.cond5, label %9, label %16

9:                                                ; preds = %3
  %10 = shl nuw nsw i64 %1, 10
  %11 = and i64 %10, 1047552
  %12 = add nuw nsw i64 %11, 65536
  %13 = and i64 %2, 1023
  %14 = or disjoint i64 %12, %13
  %15 = trunc nuw nsw i64 %14 to i32
  ret i32 %15

16:                                               ; preds = %3
  call void @llvm.lifetime.start.p0(i64 392, ptr nonnull %4) #19
  call void @_ZNSt7__cxx1118basic_stringstreamIcSt11char_traitsIcESaIcEEC1Ev(ptr noundef nonnull align 8 dereferenceable(128) %4)
  %17 = getelementptr inbounds nuw i8, ptr %4, i64 16
  %18 = invoke noundef nonnull align 8 dereferenceable(8) ptr @_ZSt16__ostream_insertIcSt11char_traitsIcEERSt13basic_ostreamIT_T0_ES6_PKS3_l(ptr noundef nonnull align 8 dereferenceable(8) %17, ptr noundef nonnull @.str.16, i64 noundef 20)
          to label %_ZStlsISt11char_traitsIcEERSt13basic_ostreamIcT_ES5_PKc.exit unwind label %22

_ZStlsISt11char_traitsIcEERSt13basic_ostreamIcT_ES5_PKc.exit: ; preds = %16
  %19 = call ptr @__cxa_allocate_exception(i64 96) #19
  call void @llvm.lifetime.start.p0(i64 32, ptr nonnull %5) #19
  invoke void @_ZNKSt7__cxx1118basic_stringstreamIcSt11char_traitsIcESaIcEE3strEv(ptr dead_on_unwind nonnull writable sret(%"class.std::__cxx11::basic_string.0") align 8 %5, ptr noundef nonnull align 8 dereferenceable(128) %4)
          to label %20 unwind label %_ZNSt7__cxx1112basic_stringIcSt11char_traitsIcESaIcEED2Ev.exit.thread

20:                                               ; preds = %_ZStlsISt11char_traitsIcEERSt13basic_ostreamIcT_ES5_PKc.exit
  invoke void @_ZN7jsonnet8internal11StaticErrorC2ERKNS0_13LocationRangeERKNSt7__cxx1112basic_stringIcSt11char_traitsIcESaIcEEE(ptr noundef nonnull align 8 dereferenceable(96) %19, ptr noundef nonnull align 8 dereferenceable(64) %0, ptr noundef nonnull align 8 dereferenceable(32) %5)
          to label %21 unwind label %25

21:                                               ; preds = %20
  invoke void @__cxa_throw(ptr nonnull %19, ptr nonnull @_ZTIN7jsonnet8internal11StaticErrorE, ptr nonnull @_ZN7jsonnet8internal11StaticErrorD2Ev) #20
          to label %37 unwind label %25

22:                                               ; preds = %16
  %23 = landingpad { ptr, i32 }
          cleanup
  br label %36

_ZNSt7__cxx1112basic_stringIcSt11char_traitsIcESaIcEED2Ev.exit.thread: ; preds = %_ZStlsISt11char_traitsIcEERSt13basic_ostreamIcT_ES5_PKc.exit
  %24 = landingpad { ptr, i32 }
          cleanup
  call void @llvm.lifetime.end.p0(i64 32, ptr nonnull %5) #19
  br label %35

25:                                               ; preds = %21, %20
  %.0 = phi i1 [ false, %21 ], [ true, %20 ]
  %26 = landingpad { ptr, i32 }
          cleanup
  %27 = load ptr, ptr %5, align 8, !tbaa !76
  %28 = getelementptr inbounds nuw i8, ptr %5, i64 16
  %29 = icmp eq ptr %27, %28
  br i1 %29, label %_ZNKSt7__cxx1112basic_stringIcSt11char_traitsIcESaIcEE11_M_is_localEv.exit.thread.i.i, label %_ZNSt7__cxx1112basic_stringIcSt11char_traitsIcESaIcEED2Ev.exit

_ZNKSt7__cxx1112basic_stringIcSt11char_traitsIcESaIcEE11_M_is_localEv.exit.thread.i.i: ; preds = %25
  %30 = getelementptr inbounds nuw i8, ptr %5, i64 8
  %31 = load i64, ptr %30, align 8, !tbaa !71
  %32 = icmp ult i64 %31, 16
  call void @llvm.assume(i1 %32)
  call void @llvm.lifetime.end.p0(i64 32, ptr nonnull %5) #19
  br i1 %.0, label %35, label %36

_ZNSt7__cxx1112basic_stringIcSt11char_traitsIcESaIcEED2Ev.exit: ; preds = %25
  %33 = load i64, ptr %28, align 8, !tbaa !18
  %34 = add i64 %33, 1
  call void @_ZdlPvm(ptr noundef %27, i64 noundef %34) #21
  call void @llvm.lifetime.end.p0(i64 32, ptr nonnull %5) #19
  br i1 %.0, label %35, label %36

35:                                               ; preds = %_ZNKSt7__cxx1112basic_stringIcSt11char_traitsIcESaIcEE11_M_is_localEv.exit.thread.i.i, %_ZNSt7__cxx1112basic_stringIcSt11char_traitsIcESaIcEED2Ev.exit.thread, %_ZNSt7__cxx1112basic_stringIcSt11char_traitsIcESaIcEED2Ev.exit
  %.pn24 = phi { ptr, i32 } [ %24, %_ZNSt7__cxx1112basic_stringIcSt11char_traitsIcESaIcEED2Ev.exit.thread ], [ %26, %_ZNSt7__cxx1112basic_stringIcSt11char_traitsIcESaIcEED2Ev.exit ], [ %26, %_ZNKSt7__cxx1112basic_stringIcSt11char_traitsIcESaIcEE11_M_is_localEv.exit.thread.i.i ]
  call void @__cxa_free_exception(ptr %19) #19
  br label %36

36:                                               ; preds = %_ZNKSt7__cxx1112basic_stringIcSt11char_traitsIcESaIcEE11_M_is_localEv.exit.thread.i.i, %_ZNSt7__cxx1112basic_stringIcSt11char_traitsIcESaIcEED2Ev.exit, %35, %22
  %.pn.pn = phi { ptr, i32 } [ %.pn24, %35 ], [ %26, %_ZNSt7__cxx1112basic_stringIcSt11char_traitsIcESaIcEED2Ev.exit ], [ %23, %22 ], [ %26, %_ZNKSt7__cxx1112basic_stringIcSt11char_traitsIcESaIcEE11_M_is_localEv.exit.thread.i.i ]
  call void @_ZNSt7__cxx1118basic_stringstreamIcSt11char_traitsIcESaIcEED1Ev(ptr noundef nonnull align 8 dereferenceable(128) %4) #19
  call void @llvm.lifetime.end.p0(i64 392, ptr nonnull %4) #19
  resume { ptr, i32 } %.pn.pn

37:                                               ; preds = %21
  unreachable
}